target datalayout = "e-m:e-p270:32:32-p271:32:32-p272:64:64-i64:64-i128:128-f80:128-n8:16:32:64-S128"
target triple = "x86_64-unknown-linux-gnu"

@.str.3 = private unnamed_addr constant [6 x i8] c"Names\00", align 1
@.str.4 = private unnamed_addr constant [11 x i8] c"zoneinfo64\00", align 1
@.str.6 = private unnamed_addr constant [8 x i8] c"Regions\00", align 1

; Function Attrs: mustprogress nounwind uwtable
define internal noundef signext i8 @_ZL9U_SUCCESS10UErrorCode(i32 noundef %code) #2 {
entry:
  %code.addr = alloca i32, align 4
  store i32 %code, ptr %code.addr, align 4
  %0 = load i32, ptr %code.addr, align 4
  %cmp = icmp sle i32 %0, 0
  %conv = zext i1 %cmp to i8
  ret i8 %conv
}

; Function Attrs: mustprogress nounwind uwtable
define internal noundef signext i8 @_ZL9U_FAILURE10UErrorCode(i32 noundef %code) #2 {
entry:
  %code.addr = alloca i32, align 4
  store i32 %code, ptr %code.addr, align 4
  %0 = load i32, ptr %code.addr, align 4
  %cmp = icmp sgt i32 %0, 0
  %conv = zext i1 %cmp to i8
  ret i8 %conv
}

; Function Attrs: mustprogress uwtable
define noundef ptr @_ZN6icu_758TimeZone9getRegionERKNS_13UnicodeStringER10UErrorCode(ptr noundef nonnull align 8 dereferenceable(64) %id, ptr noundef nonnull align 4 dereferenceable(4) %status) #0 align 2 {
entry:
  %retval = alloca ptr, align 8
  %id.addr = alloca ptr, align 8
  %status.addr = alloca ptr, align 8
  %result = alloca ptr, align 8
  %rb = alloca ptr, align 8
  %res = alloca ptr, align 8
  %idx = alloca i32, align 4
  %tmp = alloca ptr, align 8
  store ptr %id, ptr %id.addr, align 8
  store ptr %status, ptr %status.addr, align 8
  %0 = load ptr, ptr %status.addr, align 8
  %1 = load i32, ptr %0, align 4
  %call = call noundef signext i8 @_ZL9U_FAILURE10UErrorCode(i32 noundef %1)
  %tobool = icmp ne i8 %call, 0
  br i1 %tobool, label %if.then, label %if.end

if.then:                                          ; preds = %entry
  store ptr null, ptr %retval, align 8
  br label %return

if.end:                                           ; preds = %entry
  store ptr null, ptr %result, align 8
  %2 = load ptr, ptr %status.addr, align 8
  %call1 = call ptr @ures_openDirect_75(ptr noundef null, ptr noundef @.str.4, ptr noundef %2)
  store ptr %call1, ptr %rb, align 8
  %3 = load ptr, ptr %rb, align 8
  %4 = load ptr, ptr %status.addr, align 8
  %call2 = call ptr @ures_getByKey_75(ptr noundef %3, ptr noundef @.str.3, ptr noundef null, ptr noundef %4)
  store ptr %call2, ptr %res, align 8
  %5 = load ptr, ptr %res, align 8
  %6 = load ptr, ptr %id.addr, align 8
  %7 = load ptr, ptr %status.addr, align 8
  %call3 = call noundef i32 @_ZN6icu_75L17findInStringArrayEP15UResourceBundleRKNS_13UnicodeStringER10UErrorCode(ptr noundef %5, ptr noundef nonnull align 8 dereferenceable(64) %6, ptr noundef nonnull align 4 dereferenceable(4) %7)
  store i32 %call3, ptr %idx, align 4
  %8 = load ptr, ptr %rb, align 8
  %9 = load ptr, ptr %res, align 8
  %10 = load ptr, ptr %status.addr, align 8
  %call4 = call ptr @ures_getByKey_75(ptr noundef %8, ptr noundef @.str.6, ptr noundef %9, ptr noundef %10)
  %11 = load ptr, ptr %res, align 8
  %12 = load i32, ptr %idx, align 4
  %13 = load ptr, ptr %status.addr, align 8
  %call5 = call ptr @ures_getStringByIndex_75(ptr noundef %11, i32 noundef %12, ptr noundef null, ptr noundef %13)
  store ptr %call5, ptr %tmp, align 8
  %14 = load ptr, ptr %status.addr, align 8
  %15 = load i32, ptr %14, align 4
  %call6 = call noundef signext i8 @_ZL9U_SUCCESS10UErrorCode(i32 noundef %15)
  %tobool7 = icmp ne i8 %call6, 0
  br i1 %tobool7, label %if.then8, label %if.end9

if.then8:                                         ; preds = %if.end
  %16 = load ptr, ptr %tmp, align 8
  store ptr %16, ptr %result, align 8
  br label %if.end9

if.end9:                                          ; preds = %if.then8, %if.end
  %17 = load ptr, ptr %res, align 8
  call void @ures_close_75(ptr noundef %17)
  %18 = load ptr, ptr %rb, align 8
  call void @ures_close_75(ptr noundef %18)
  %19 = load ptr, ptr %result, align 8
  store ptr %19, ptr %retval, align 8
  br label %return

return:                                           ; preds = %if.end9, %if.then
  %20 = load ptr, ptr %retval, align 8
  ret ptr %20
}