; Function Attrs: mustprogress uwtable
define noundef ptr @_ZN6icu_758TimeZone9getRegionERKNS_13UnicodeStringER10UErrorCode(ptr noundef nonnull align 8 dereferenceable(64) %id, ptr noundef nonnull align 4 dereferenceable(4) %status) local_unnamed_addr #0 align 2 {
entry:
  %0 = load i32, ptr %status, align 4
  %cmp.i = icmp slt i32 %0, 1
  br i1 %cmp.i, label %if.end, label %return

if.end:                                           ; preds = %entry
  %call1 = tail call ptr @ures_openDirect_75(ptr noundef null, ptr noundef nonnull @.str.4, ptr noundef nonnull %status)
  %call2 = tail call ptr @ures_getByKey_75(ptr noundef %call1, ptr noundef nonnull @.str.3, ptr noundef null, ptr noundef nonnull %status)
  %call3 = tail call fastcc noundef i32 @_ZN6icu_75L17findInStringArrayEP15UResourceBundleRKNS_13UnicodeStringER10UErrorCode(ptr noundef %call2, ptr noundef nonnull align 8 dereferenceable(64) %id, ptr noundef nonnull align 4 dereferenceable(4) %status), !range !12
  %call4 = tail call ptr @ures_getByKey_75(ptr noundef %call1, ptr noundef nonnull @.str.6, ptr noundef %call2, ptr noundef nonnull %status)
  %call5 = tail call ptr @ures_getStringByIndex_75(ptr noundef %call2, i32 noundef %call3, ptr noundef null, ptr noundef nonnull %status)
  %1 = load i32, ptr %status, align 4
  %cmp.i12 = icmp sgt i32 %1, 0
  %spec.select = select i1 %cmp.i12, ptr null, ptr %call5
  tail call void @ures_close_75(ptr noundef %call2)
  tail call void @ures_close_75(ptr noundef %call1)
  br label %return

return:                                           ; preds = %entry, %if.end
  %retval.0 = phi ptr [ %spec.select, %if.end ], [ null, %entry ]
  ret ptr %retval.0
}